#include <math.h>
#include <stdio.h>
#include <stdlib.h>
#include <string.h>

int main()
{
int i,n,m,j;
double x,s;
char a[101],b[101];
j=0;
scanf("%lf",&x);
	//getchar();
scanf("%s%s",a,b);
	n=strlen(a);
	m=strlen(b);
	s=0;
	for(i=0;i<n;i++)
	{ 
		if(a[i]!='A'&&a[i]!='T'&&a[i]!='C'&&a[i]!='G')
		{
			j++;
			break;
		}
	}

if(n!=m||j!=0)
{
	printf("error");
}else
{
	for(i=0;i<n;i++)
	{
		if(b[i]==a[i])
		{
			s++;
		}
	}
    s=s/n;
	if(s>x)
	{
	 printf("yes");
	}else
	{
		printf("no");
	}

}


return 0;
}